target datalayout = "e-m:e-p270:32:32-p271:32:32-p272:64:64-i64:64-i128:128-f80:128-n8:16:32:64-S128"
target triple = "x86_64-pc-linux-gnu"

@mstp_handle = internal global ptr null, align 8
@.str.39 = private unnamed_addr constant [23 x i8] c"mstp.vendor_frame_type\00", align 1
@.str.43 = private unnamed_addr constant [11 x i8] c"wtap_encap\00", align 1
@.str.44 = private unnamed_addr constant [7 x i8] c"bacnet\00", align 1

; Function Attrs: null_pointer_is_valid sspstrong uwtable
define hidden void @proto_reg_handoff_mstp() #0 {
  %1 = alloca ptr, align 8
  call void @llvm.lifetime.start.p0(i64 8, ptr %1) #6
  %2 = load ptr, ptr @mstp_handle, align 8
  call void @dissector_add_uint(ptr noundef @.str.43, i32 noundef 63, ptr noundef %2)
  %3 = load ptr, ptr @mstp_handle, align 8
  call void @dissector_add_uint(ptr noundef @.str.43, i32 noundef 143, ptr noundef %3)
  %4 = call ptr @find_dissector(ptr noundef @.str.44)
  store ptr %4, ptr %1, align 8
  %5 = load ptr, ptr %1, align 8
  call void @dissector_add_uint(ptr noundef @.str.39, i32 noundef 5, ptr noundef %5)
  %6 = load ptr, ptr %1, align 8
  call void @dissector_add_uint(ptr noundef @.str.39, i32 noundef 6, ptr noundef %6)
  %7 = load ptr, ptr %1, align 8
  call void @dissector_add_uint(ptr noundef @.str.39, i32 noundef 32, ptr noundef %7)
  %8 = load ptr, ptr %1, align 8
  call void @dissector_add_uint(ptr noundef @.str.39, i32 noundef 33, ptr noundef %8)
  call void @llvm.lifetime.end.p0(i64 8, ptr %1) #6
  ret void
}