; Function Attrs: null_pointer_is_valid sspstrong uwtable
define hidden void @proto_reg_handoff_mstp() local_unnamed_addr #0 {
  %1 = load ptr, ptr @mstp_handle, align 8
  tail call void @dissector_add_uint(ptr noundef nonnull @.str.43, i32 noundef 63, ptr noundef %1)
  %2 = load ptr, ptr @mstp_handle, align 8
  tail call void @dissector_add_uint(ptr noundef nonnull @.str.43, i32 noundef 143, ptr noundef %2)
  %3 = tail call ptr @find_dissector(ptr noundef nonnull @.str.44)
  tail call void @dissector_add_uint(ptr noundef nonnull @.str.39, i32 noundef 5, ptr noundef %3)
  tail call void @dissector_add_uint(ptr noundef nonnull @.str.39, i32 noundef 6, ptr noundef %3)
  tail call void @dissector_add_uint(ptr noundef nonnull @.str.39, i32 noundef 32, ptr noundef %3)
  tail call void @dissector_add_uint(ptr noundef nonnull @.str.39, i32 noundef 33, ptr noundef %3)
  ret void
}